target datalayout = "e-m:e-p270:32:32-p271:32:32-p272:64:64-i64:64-i128:128-f80:128-n8:16:32:64-S128"
target triple = "x86_64-pc-linux-gnu"

%"class.euf::solve_eqs" = type { %class.dependent_expr_simplifier, %"struct.euf::solve_eqs::stats", %"struct.euf::solve_eqs::config", %class.th_rewriter, %class.scoped_ptr_vector, %class.svector, %class.ptr_vector.1, %class.svector, %class.svector, %class.vector.3, %class.scoped_ptr, %class.obj_mark, %class.ptr_vector.4, %class.obj_mark, %class.obj_map }
%class.dependent_expr_simplifier = type { ptr, ptr, ptr, ptr }
%"struct.euf::solve_eqs::stats" = type { i32, i32 }
%"struct.euf::solve_eqs::config" = type { i8, i32 }
%class.th_rewriter = type { ptr, %class.params_ref }
%class.params_ref = type { ptr }
%class.scoped_ptr_vector = type { %class.ptr_vector }
%class.ptr_vector = type { %class.vector }
%class.vector = type { ptr }
%class.ptr_vector.1 = type { %class.vector.2 }
%class.vector.2 = type { ptr }
%class.svector = type { %class.vector.0 }
%class.vector.0 = type { ptr }
%class.vector.3 = type { ptr }
%class.scoped_ptr = type { ptr }
%class.ptr_vector.4 = type { %class.vector.5 }
%class.vector.5 = type { ptr }
%class.obj_mark = type { [8 x i8], %class.bit_vector }
%class.bit_vector = type { i32, i32, ptr }
%class.obj_map = type { %class.core_hashtable }
%class.core_hashtable = type <{ ptr, i32, i32, i32, [4 x i8] }>

@.str.15 = private unnamed_addr constant [16 x i8] c"solve-eqs-steps\00", align 1
@.str.16 = private unnamed_addr constant [20 x i8] c"solve-eqs-elim-vars\00", align 1

; Function Attrs: mustprogress uwtable
define hidden void @_ZNK3euf9solve_eqs18collect_statisticsER10statistics(ptr noundef nonnull align 8 dereferenceable(200) %0, ptr noundef nonnull align 8 dereferenceable(16) %1) unnamed_addr #4 align 2 {
  %3 = alloca ptr, align 8
  %4 = alloca ptr, align 8
  store ptr %0, ptr %3, align 8, !tbaa !3
  store ptr %1, ptr %4, align 8, !tbaa !284
  %5 = load ptr, ptr %3, align 8
  %6 = load ptr, ptr %4, align 8, !tbaa !284
  %7 = getelementptr inbounds nuw %"class.euf::solve_eqs", ptr %5, i32 0, i32 1
  %8 = getelementptr inbounds nuw %"struct.euf::solve_eqs::stats", ptr %7, i32 0, i32 0
  %9 = load i32, ptr %8, align 8, !tbaa !128
  call void @_ZN10statistics6updateEPKcj(ptr noundef nonnull align 8 dereferenceable(16) %6, ptr noundef @.str.15, i32 noundef %9)
  %10 = load ptr, ptr %4, align 8, !tbaa !284
  %11 = getelementptr inbounds nuw %"class.euf::solve_eqs", ptr %5, i32 0, i32 1
  %12 = getelementptr inbounds nuw %"struct.euf::solve_eqs::stats", ptr %11, i32 0, i32 1
  %13 = load i32, ptr %12, align 4, !tbaa !148
  call void @_ZN10statistics6updateEPKcj(ptr noundef nonnull align 8 dereferenceable(16) %10, ptr noundef @.str.16, i32 noundef %13)
  ret void
}